target datalayout = "e-m:e-p270:32:32-p271:32:32-p272:64:64-i64:64-i128:128-f80:128-n8:16:32:64-S128"
target triple = "x86_64-pc-linux-gnu"

%struct.AVFormatContext = type { ptr, ptr, ptr, ptr, ptr, i32, i32, ptr, i32, ptr, i32, ptr, ptr, i64, i64, i64, i32, i32, i32, i64, i64, ptr, i32, i32, ptr, i32, i32, i32, i32, ptr, i64, i32, i32, %struct.AVIOInterruptCB, i32, i32, i32, i32, i64, i32, i32, i32, i32, i32, i32, i32, i32, i32, i32, i32, i32, i64, i32, i32, i32, i32, i32, ptr, ptr, ptr, ptr, i32, ptr, ptr, ptr, ptr, i32, ptr, ptr, i64, ptr, ptr, ptr, i64 }
%struct.AVIOInterruptCB = type { ptr, ptr }
%struct.AVStream = type { ptr, i32, i32, ptr, ptr, %struct.AVRational, i64, i64, i64, i32, i32, %struct.AVRational, ptr, %struct.AVRational, %struct.AVPacket, i32, %struct.AVRational, i32 }
%struct.AVPacket = type { ptr, i64, i64, ptr, i32, i32, i32, ptr, i32, i64, i64, ptr, ptr, %struct.AVRational }
%struct.AVRational = type { i32, i32 }
%struct.VideoMuxData = type { ptr, i32, i32, i32, [4 x [1024 x i8]], [4 x [1024 x i8]], i32, i32, i32, ptr, i32, ptr }
%struct.FFFormatContext = type { %struct.AVFormatContext, i32, %struct.PacketList, i64, ptr, ptr, i32, ptr, i32 }
%struct.PacketList = type { ptr, ptr }

; Function Attrs: alwaysinline nounwind uwtable
define internal ptr @ffformatcontext(ptr noundef %0) #7 {
  %2 = alloca ptr, align 8
  store ptr %0, ptr %2, align 8, !tbaa !4
  %3 = load ptr, ptr %2, align 8, !tbaa !4
  ret ptr %3
}

; Function Attrs: nounwind uwtable
define internal i32 @write_muxed_file(ptr noundef %0, ptr noundef %1, ptr noundef %2) #0 {
  %4 = alloca i32, align 4
  %5 = alloca ptr, align 8
  %6 = alloca ptr, align 8
  %7 = alloca ptr, align 8
  %8 = alloca ptr, align 8
  %9 = alloca ptr, align 8
  %10 = alloca ptr, align 8
  %11 = alloca ptr, align 8
  %12 = alloca ptr, align 8
  %13 = alloca i32, align 4
  %14 = alloca i32, align 4
  store ptr %0, ptr %5, align 8, !tbaa !4
  store ptr %1, ptr %6, align 8, !tbaa !80
  store ptr %2, ptr %7, align 8, !tbaa !55
  call void @llvm.lifetime.start.p0(i64 8, ptr %8) #8
  %15 = load ptr, ptr %5, align 8, !tbaa !4
  %16 = getelementptr inbounds nuw %struct.AVFormatContext, ptr %15, i32 0, i32 3
  %17 = load ptr, ptr %16, align 8, !tbaa !9
  store ptr %17, ptr %8, align 8, !tbaa !26
  call void @llvm.lifetime.start.p0(i64 8, ptr %9) #8
  %18 = load ptr, ptr %5, align 8, !tbaa !4
  %19 = getelementptr inbounds nuw %struct.AVFormatContext, ptr %18, i32 0, i32 7
  %20 = load ptr, ptr %19, align 8, !tbaa !28
  %21 = load ptr, ptr %7, align 8, !tbaa !55
  %22 = getelementptr inbounds nuw %struct.AVPacket, ptr %21, i32 0, i32 5
  %23 = load i32, ptr %22, align 4, !tbaa !57
  %24 = sext i32 %23 to i64
  %25 = getelementptr inbounds ptr, ptr %20, i64 %24
  %26 = load ptr, ptr %25, align 8, !tbaa !29
  %27 = getelementptr inbounds nuw %struct.AVStream, ptr %26, i32 0, i32 3
  %28 = load ptr, ptr %27, align 8, !tbaa !31
  store ptr %28, ptr %9, align 8, !tbaa !58
  call void @llvm.lifetime.start.p0(i64 8, ptr %10) #8
  call void @llvm.lifetime.start.p0(i64 8, ptr %11) #8
  %29 = load ptr, ptr %5, align 8, !tbaa !4
  %30 = call ptr @ffformatcontext(ptr noundef %29)
  %31 = getelementptr inbounds nuw %struct.FFFormatContext, ptr %30, i32 0, i32 5
  %32 = load ptr, ptr %31, align 8, !tbaa !90
  store ptr %32, ptr %11, align 8, !tbaa !55
  call void @llvm.lifetime.start.p0(i64 8, ptr %12) #8
  store ptr null, ptr %12, align 8, !tbaa !4
  call void @llvm.lifetime.start.p0(i64 4, ptr %13) #8
  %33 = load ptr, ptr %8, align 8, !tbaa !26
  %34 = getelementptr inbounds nuw %struct.VideoMuxData, ptr %33, i32 0, i32 9
  %35 = load ptr, ptr %34, align 8, !tbaa !44
  %36 = load ptr, ptr %5, align 8, !tbaa !4
  %37 = getelementptr inbounds nuw %struct.AVFormatContext, ptr %36, i32 0, i32 12
  %38 = load ptr, ptr %37, align 8, !tbaa !46
  %39 = call i32 @avformat_alloc_output_context2(ptr noundef %12, ptr noundef null, ptr noundef %35, ptr noundef %38)
  store i32 %39, ptr %13, align 4, !tbaa !59
  %40 = load i32, ptr %13, align 4, !tbaa !59
  %41 = icmp slt i32 %40, 0
  br i1 %41, label %42, label %44

42:                                               ; preds = %3
  %43 = load i32, ptr %13, align 4, !tbaa !59
  store i32 %43, ptr %4, align 4
  store i32 1, ptr %14, align 4
  br label %93

44:                                               ; preds = %3
  %45 = load ptr, ptr %12, align 8, !tbaa !4
  %46 = call ptr @avformat_new_stream(ptr noundef %45, ptr noundef null)
  store ptr %46, ptr %10, align 8, !tbaa !29
  %47 = load ptr, ptr %10, align 8, !tbaa !29
  %48 = icmp ne ptr %47, null
  br i1 %48, label %50, label %49

49:                                               ; preds = %44
  store i32 -12, ptr %13, align 4, !tbaa !59
  br label %90

50:                                               ; preds = %44
  %51 = load ptr, ptr %7, align 8, !tbaa !55
  %52 = getelementptr inbounds nuw %struct.AVPacket, ptr %51, i32 0, i32 5
  %53 = load i32, ptr %52, align 4, !tbaa !57
  %54 = load ptr, ptr %10, align 8, !tbaa !29
  %55 = getelementptr inbounds nuw %struct.AVStream, ptr %54, i32 0, i32 2
  store i32 %53, ptr %55, align 4, !tbaa !94
  %56 = load ptr, ptr %6, align 8, !tbaa !80
  %57 = load ptr, ptr %12, align 8, !tbaa !4
  %58 = getelementptr inbounds nuw %struct.AVFormatContext, ptr %57, i32 0, i32 4
  store ptr %56, ptr %58, align 8, !tbaa !87
  %59 = load ptr, ptr %11, align 8, !tbaa !55
  %60 = load ptr, ptr %7, align 8, !tbaa !55
  %61 = call i32 @av_packet_ref(ptr noundef %59, ptr noundef %60)
  store i32 %61, ptr %13, align 4, !tbaa !59
  %62 = load i32, ptr %13, align 4, !tbaa !59
  %63 = icmp slt i32 %62, 0
  br i1 %63, label %64, label %65

64:                                               ; preds = %50
  br label %90

65:                                               ; preds = %50
  %66 = load ptr, ptr %11, align 8, !tbaa !55
  %67 = getelementptr inbounds nuw %struct.AVPacket, ptr %66, i32 0, i32 5
  store i32 0, ptr %67, align 4, !tbaa !57
  %68 = load ptr, ptr %10, align 8, !tbaa !29
  %69 = getelementptr inbounds nuw %struct.AVStream, ptr %68, i32 0, i32 3
  %70 = load ptr, ptr %69, align 8, !tbaa !31
  %71 = load ptr, ptr %9, align 8, !tbaa !58
  %72 = call i32 @avcodec_parameters_copy(ptr noundef %70, ptr noundef %71)
  store i32 %72, ptr %13, align 4, !tbaa !59
  %73 = icmp slt i32 %72, 0
  br i1 %73, label %87, label %74

74:                                               ; preds = %65
  %75 = load ptr, ptr %12, align 8, !tbaa !4
  %76 = call i32 @avformat_write_header(ptr noundef %75, ptr noundef null)
  store i32 %76, ptr %13, align 4, !tbaa !59
  %77 = icmp slt i32 %76, 0
  br i1 %77, label %87, label %78

78:                                               ; preds = %74
  %79 = load ptr, ptr %12, align 8, !tbaa !4
  %80 = load ptr, ptr %11, align 8, !tbaa !55
  %81 = call i32 @av_interleaved_write_frame(ptr noundef %79, ptr noundef %80)
  store i32 %81, ptr %13, align 4, !tbaa !59
  %82 = icmp slt i32 %81, 0
  br i1 %82, label %87, label %83

83:                                               ; preds = %78
  %84 = load ptr, ptr %12, align 8, !tbaa !4
  %85 = call i32 @av_write_trailer(ptr noundef %84)
  store i32 %85, ptr %13, align 4, !tbaa !59
  %86 = icmp ne i32 %85, 0
  br i1 %86, label %87, label %88

87:                                               ; preds = %83, %78, %74, %65
  br label %88

88:                                               ; preds = %87, %83
  %89 = load ptr, ptr %11, align 8, !tbaa !55
  call void @av_packet_unref(ptr noundef %89)
  br label %90

90:                                               ; preds = %88, %64, %49
  %91 = load ptr, ptr %12, align 8, !tbaa !4
  call void @avformat_free_context(ptr noundef %91)
  %92 = load i32, ptr %13, align 4, !tbaa !59
  store i32 %92, ptr %4, align 4
  store i32 1, ptr %14, align 4
  br label %93

93:                                               ; preds = %90, %42
  call void @llvm.lifetime.end.p0(i64 4, ptr %13) #8
  call void @llvm.lifetime.end.p0(i64 8, ptr %12) #8
  call void @llvm.lifetime.end.p0(i64 8, ptr %11) #8
  call void @llvm.lifetime.end.p0(i64 8, ptr %10) #8
  call void @llvm.lifetime.end.p0(i64 8, ptr %9) #8
  call void @llvm.lifetime.end.p0(i64 8, ptr %8) #8
  %94 = load i32, ptr %4, align 4
  ret i32 %94
}