; Function Attrs: nounwind uwtable
define internal fastcc i32 @write_muxed_file(ptr noundef readonly captures(none) %0, ptr noundef %1, ptr noundef %2) unnamed_addr #0 {
  %4 = alloca ptr, align 8
  %5 = getelementptr inbounds nuw i8, ptr %0, i64 24
  %6 = load ptr, ptr %5, align 8, !tbaa !4
  %7 = getelementptr inbounds nuw i8, ptr %0, i64 48
  %8 = load ptr, ptr %7, align 8, !tbaa !24
  %9 = getelementptr inbounds nuw i8, ptr %2, i64 36
  %10 = load i32, ptr %9, align 4, !tbaa !48
  %11 = sext i32 %10 to i64
  %12 = getelementptr inbounds ptr, ptr %8, i64 %11
  %13 = load ptr, ptr %12, align 8, !tbaa !25
  %14 = getelementptr inbounds nuw i8, ptr %13, i64 16
  %15 = load ptr, ptr %14, align 8, !tbaa !27
  %16 = getelementptr inbounds nuw i8, ptr %0, i64 512
  %17 = load ptr, ptr %16, align 8, !tbaa !75
  call void @llvm.lifetime.start.p0(i64 8, ptr nonnull %4) #8
  store ptr null, ptr %4, align 8, !tbaa !80
  %18 = getelementptr inbounds nuw i8, ptr %6, i64 8224
  %19 = load ptr, ptr %18, align 8, !tbaa !38
  %20 = getelementptr inbounds nuw i8, ptr %0, i64 88
  %21 = load ptr, ptr %20, align 8, !tbaa !40
  %22 = call i32 @avformat_alloc_output_context2(ptr noundef nonnull %4, ptr noundef null, ptr noundef %19, ptr noundef %21) #8
  %23 = icmp slt i32 %22, 0
  br i1 %23, label %54, label %24

24:                                               ; preds = %3
  %25 = load ptr, ptr %4, align 8, !tbaa !80
  %26 = call ptr @avformat_new_stream(ptr noundef %25, ptr noundef null) #8
  %.not = icmp eq ptr %26, null
  br i1 %.not, label %52, label %27

27:                                               ; preds = %24
  %28 = load i32, ptr %9, align 4, !tbaa !48
  %29 = getelementptr inbounds nuw i8, ptr %26, i64 12
  store i32 %28, ptr %29, align 4, !tbaa !82
  %30 = load ptr, ptr %4, align 8, !tbaa !80
  %31 = getelementptr inbounds nuw i8, ptr %30, i64 32
  store ptr %1, ptr %31, align 8, !tbaa !74
  %32 = call i32 @av_packet_ref(ptr noundef %17, ptr noundef nonnull %2) #8
  %33 = icmp slt i32 %32, 0
  br i1 %33, label %52, label %34

34:                                               ; preds = %27
  %35 = getelementptr inbounds nuw i8, ptr %17, i64 36
  store i32 0, ptr %35, align 4, !tbaa !48
  %36 = getelementptr inbounds nuw i8, ptr %26, i64 16
  %37 = load ptr, ptr %36, align 8, !tbaa !27
  %38 = call i32 @avcodec_parameters_copy(ptr noundef %37, ptr noundef %15) #8
  %39 = icmp slt i32 %38, 0
  br i1 %39, label %51, label %40

40:                                               ; preds = %34
  %41 = load ptr, ptr %4, align 8, !tbaa !80
  %42 = call i32 @avformat_write_header(ptr noundef %41, ptr noundef null) #8
  %43 = icmp slt i32 %42, 0
  br i1 %43, label %51, label %44

44:                                               ; preds = %40
  %45 = load ptr, ptr %4, align 8, !tbaa !80
  %46 = call i32 @av_interleaved_write_frame(ptr noundef %45, ptr noundef nonnull %17) #8
  %47 = icmp slt i32 %46, 0
  br i1 %47, label %51, label %48

48:                                               ; preds = %44
  %49 = load ptr, ptr %4, align 8, !tbaa !80
  %50 = call i32 @av_write_trailer(ptr noundef %49) #8
  br label %51

51:                                               ; preds = %48, %34, %40, %44
  %.1 = phi i32 [ %38, %34 ], [ %42, %40 ], [ %46, %44 ], [ %50, %48 ]
  call void @av_packet_unref(ptr noundef nonnull %17) #8
  br label %52

52:                                               ; preds = %24, %27, %51
  %.0 = phi i32 [ %32, %27 ], [ %.1, %51 ], [ -12, %24 ]
  %53 = load ptr, ptr %4, align 8, !tbaa !80
  call void @avformat_free_context(ptr noundef %53) #8
  br label %54

54:                                               ; preds = %3, %52
  %.021 = phi i32 [ %.0, %52 ], [ %22, %3 ]
  call void @llvm.lifetime.end.p0(i64 8, ptr nonnull %4) #8
  ret i32 %.021
}